target datalayout = "e-m:e-p270:32:32-p271:32:32-p272:64:64-i64:64-i128:128-f80:128-n8:16:32:64-S128"
target triple = "x86_64-pc-linux-gnu"

%struct._zend_refcounted_h = type { i32, %union.anon.3 }
%union.anon.3 = type { i32 }
%struct._zend_string = type { %struct._zend_refcounted_h, i64, i64, [1 x i8] }

; Function Attrs: nounwind uwtable
define dso_local void @php_stripcslashes(ptr noundef %0) #0 {
  %2 = alloca ptr, align 8
  %3 = alloca ptr, align 8
  %4 = alloca ptr, align 8
  %5 = alloca ptr, align 8
  %6 = alloca i64, align 8
  %7 = alloca i64, align 8
  %8 = alloca [4 x i8], align 1
  store ptr %0, ptr %2, align 8, !tbaa !23
  call void @llvm.lifetime.start.p0(i64 8, ptr %3) #22
  call void @llvm.lifetime.start.p0(i64 8, ptr %4) #22
  call void @llvm.lifetime.start.p0(i64 8, ptr %5) #22
  call void @llvm.lifetime.start.p0(i64 8, ptr %6) #22
  %9 = load ptr, ptr %2, align 8, !tbaa !23
  %10 = getelementptr inbounds nuw %struct._zend_string, ptr %9, i32 0, i32 2
  %11 = load i64, ptr %10, align 8, !tbaa !25
  store i64 %11, ptr %6, align 8, !tbaa !31
  call void @llvm.lifetime.start.p0(i64 8, ptr %7) #22
  call void @llvm.lifetime.start.p0(i64 4, ptr %8) #22
  %12 = load ptr, ptr %2, align 8, !tbaa !23
  %13 = getelementptr inbounds nuw %struct._zend_string, ptr %12, i32 0, i32 3
  %14 = getelementptr inbounds [1 x i8], ptr %13, i64 0, i64 0
  store ptr %14, ptr %3, align 8, !tbaa !10
  %15 = load ptr, ptr %3, align 8, !tbaa !10
  %16 = load ptr, ptr %2, align 8, !tbaa !23
  %17 = getelementptr inbounds nuw %struct._zend_string, ptr %16, i32 0, i32 2
  %18 = load i64, ptr %17, align 8, !tbaa !25
  %19 = getelementptr inbounds nuw i8, ptr %15, i64 %18
  store ptr %19, ptr %4, align 8, !tbaa !10
  %20 = load ptr, ptr %2, align 8, !tbaa !23
  %21 = getelementptr inbounds nuw %struct._zend_string, ptr %20, i32 0, i32 3
  %22 = getelementptr inbounds [1 x i8], ptr %21, i64 0, i64 0
  store ptr %22, ptr %5, align 8, !tbaa !10
  br label %23

23:                                               ; preds = %200, %1
  %24 = load ptr, ptr %3, align 8, !tbaa !10
  %25 = load ptr, ptr %4, align 8, !tbaa !10
  %26 = icmp ult ptr %24, %25
  br i1 %26, label %27, label %203

27:                                               ; preds = %23
  %28 = load ptr, ptr %3, align 8, !tbaa !10
  %29 = load i8, ptr %28, align 1, !tbaa !12
  %30 = sext i8 %29 to i32
  %31 = icmp eq i32 %30, 92
  br i1 %31, label %32, label %194

32:                                               ; preds = %27
  %33 = load ptr, ptr %3, align 8, !tbaa !10
  %34 = getelementptr inbounds i8, ptr %33, i64 1
  %35 = load ptr, ptr %4, align 8, !tbaa !10
  %36 = icmp ult ptr %34, %35
  br i1 %36, label %37, label %194

37:                                               ; preds = %32
  %38 = load ptr, ptr %3, align 8, !tbaa !10
  %39 = getelementptr inbounds nuw i8, ptr %38, i32 1
  store ptr %39, ptr %3, align 8, !tbaa !10
  %40 = load ptr, ptr %3, align 8, !tbaa !10
  %41 = load i8, ptr %40, align 1, !tbaa !12
  %42 = sext i8 %41 to i32
  switch i32 %42, label %142 [
    i32 110, label %43
    i32 114, label %48
    i32 97, label %53
    i32 116, label %58
    i32 118, label %63
    i32 98, label %68
    i32 102, label %73
    i32 92, label %78
    i32 120, label %83
  ]

43:                                               ; preds = %37
  %44 = load ptr, ptr %5, align 8, !tbaa !10
  %45 = getelementptr inbounds nuw i8, ptr %44, i32 1
  store ptr %45, ptr %5, align 8, !tbaa !10
  store i8 10, ptr %44, align 1, !tbaa !12
  %46 = load i64, ptr %6, align 8, !tbaa !31
  %47 = add i64 %46, -1
  store i64 %47, ptr %6, align 8, !tbaa !31
  br label %193

48:                                               ; preds = %37
  %49 = load ptr, ptr %5, align 8, !tbaa !10
  %50 = getelementptr inbounds nuw i8, ptr %49, i32 1
  store ptr %50, ptr %5, align 8, !tbaa !10
  store i8 13, ptr %49, align 1, !tbaa !12
  %51 = load i64, ptr %6, align 8, !tbaa !31
  %52 = add i64 %51, -1
  store i64 %52, ptr %6, align 8, !tbaa !31
  br label %193

53:                                               ; preds = %37
  %54 = load ptr, ptr %5, align 8, !tbaa !10
  %55 = getelementptr inbounds nuw i8, ptr %54, i32 1
  store ptr %55, ptr %5, align 8, !tbaa !10
  store i8 7, ptr %54, align 1, !tbaa !12
  %56 = load i64, ptr %6, align 8, !tbaa !31
  %57 = add i64 %56, -1
  store i64 %57, ptr %6, align 8, !tbaa !31
  br label %193

58:                                               ; preds = %37
  %59 = load ptr, ptr %5, align 8, !tbaa !10
  %60 = getelementptr inbounds nuw i8, ptr %59, i32 1
  store ptr %60, ptr %5, align 8, !tbaa !10
  store i8 9, ptr %59, align 1, !tbaa !12
  %61 = load i64, ptr %6, align 8, !tbaa !31
  %62 = add i64 %61, -1
  store i64 %62, ptr %6, align 8, !tbaa !31
  br label %193

63:                                               ; preds = %37
  %64 = load ptr, ptr %5, align 8, !tbaa !10
  %65 = getelementptr inbounds nuw i8, ptr %64, i32 1
  store ptr %65, ptr %5, align 8, !tbaa !10
  store i8 11, ptr %64, align 1, !tbaa !12
  %66 = load i64, ptr %6, align 8, !tbaa !31
  %67 = add i64 %66, -1
  store i64 %67, ptr %6, align 8, !tbaa !31
  br label %193

68:                                               ; preds = %37
  %69 = load ptr, ptr %5, align 8, !tbaa !10
  %70 = getelementptr inbounds nuw i8, ptr %69, i32 1
  store ptr %70, ptr %5, align 8, !tbaa !10
  store i8 8, ptr %69, align 1, !tbaa !12
  %71 = load i64, ptr %6, align 8, !tbaa !31
  %72 = add i64 %71, -1
  store i64 %72, ptr %6, align 8, !tbaa !31
  br label %193

73:                                               ; preds = %37
  %74 = load ptr, ptr %5, align 8, !tbaa !10
  %75 = getelementptr inbounds nuw i8, ptr %74, i32 1
  store ptr %75, ptr %5, align 8, !tbaa !10
  store i8 12, ptr %74, align 1, !tbaa !12
  %76 = load i64, ptr %6, align 8, !tbaa !31
  %77 = add i64 %76, -1
  store i64 %77, ptr %6, align 8, !tbaa !31
  br label %193

78:                                               ; preds = %37
  %79 = load ptr, ptr %5, align 8, !tbaa !10
  %80 = getelementptr inbounds nuw i8, ptr %79, i32 1
  store ptr %80, ptr %5, align 8, !tbaa !10
  store i8 92, ptr %79, align 1, !tbaa !12
  %81 = load i64, ptr %6, align 8, !tbaa !31
  %82 = add i64 %81, -1
  store i64 %82, ptr %6, align 8, !tbaa !31
  br label %193

83:                                               ; preds = %37
  %84 = load ptr, ptr %3, align 8, !tbaa !10
  %85 = getelementptr inbounds i8, ptr %84, i64 1
  %86 = load ptr, ptr %4, align 8, !tbaa !10
  %87 = icmp ult ptr %85, %86
  br i1 %87, label %88, label %141

88:                                               ; preds = %83
  %89 = call ptr @__ctype_b_loc() #26
  %90 = load ptr, ptr %89, align 8, !tbaa !128
  %91 = load ptr, ptr %3, align 8, !tbaa !10
  %92 = getelementptr inbounds i8, ptr %91, i64 1
  %93 = load i8, ptr %92, align 1, !tbaa !12
  %94 = sext i8 %93 to i32
  %95 = sext i32 %94 to i64
  %96 = getelementptr inbounds i16, ptr %90, i64 %95
  %97 = load i16, ptr %96, align 2, !tbaa !130
  %98 = zext i16 %97 to i32
  %99 = and i32 %98, 4096
  %100 = icmp ne i32 %99, 0
  br i1 %100, label %101, label %141

101:                                              ; preds = %88
  %102 = load ptr, ptr %3, align 8, !tbaa !10
  %103 = getelementptr inbounds nuw i8, ptr %102, i32 1
  store ptr %103, ptr %3, align 8, !tbaa !10
  %104 = load i8, ptr %103, align 1, !tbaa !12
  %105 = getelementptr inbounds [4 x i8], ptr %8, i64 0, i64 0
  store i8 %104, ptr %105, align 1, !tbaa !12
  %106 = load ptr, ptr %3, align 8, !tbaa !10
  %107 = getelementptr inbounds i8, ptr %106, i64 1
  %108 = load ptr, ptr %4, align 8, !tbaa !10
  %109 = icmp ult ptr %107, %108
  br i1 %109, label %110, label %131

110:                                              ; preds = %101
  %111 = call ptr @__ctype_b_loc() #26
  %112 = load ptr, ptr %111, align 8, !tbaa !128
  %113 = load ptr, ptr %3, align 8, !tbaa !10
  %114 = getelementptr inbounds i8, ptr %113, i64 1
  %115 = load i8, ptr %114, align 1, !tbaa !12
  %116 = sext i8 %115 to i32
  %117 = sext i32 %116 to i64
  %118 = getelementptr inbounds i16, ptr %112, i64 %117
  %119 = load i16, ptr %118, align 2, !tbaa !130
  %120 = zext i16 %119 to i32
  %121 = and i32 %120, 4096
  %122 = icmp ne i32 %121, 0
  br i1 %122, label %123, label %131

123:                                              ; preds = %110
  %124 = load ptr, ptr %3, align 8, !tbaa !10
  %125 = getelementptr inbounds nuw i8, ptr %124, i32 1
  store ptr %125, ptr %3, align 8, !tbaa !10
  %126 = load i8, ptr %125, align 1, !tbaa !12
  %127 = getelementptr inbounds [4 x i8], ptr %8, i64 0, i64 1
  store i8 %126, ptr %127, align 1, !tbaa !12
  %128 = getelementptr inbounds [4 x i8], ptr %8, i64 0, i64 2
  store i8 0, ptr %128, align 1, !tbaa !12
  %129 = load i64, ptr %6, align 8, !tbaa !31
  %130 = sub i64 %129, 3
  store i64 %130, ptr %6, align 8, !tbaa !31
  br label %135

131:                                              ; preds = %110, %101
  %132 = getelementptr inbounds [4 x i8], ptr %8, i64 0, i64 1
  store i8 0, ptr %132, align 1, !tbaa !12
  %133 = load i64, ptr %6, align 8, !tbaa !31
  %134 = sub i64 %133, 2
  store i64 %134, ptr %6, align 8, !tbaa !31
  br label %135

135:                                              ; preds = %131, %123
  %136 = getelementptr inbounds [4 x i8], ptr %8, i64 0, i64 0
  %137 = call i64 @strtol(ptr noundef %136, ptr noundef null, i32 noundef 16) #22
  %138 = trunc i64 %137 to i8
  %139 = load ptr, ptr %5, align 8, !tbaa !10
  %140 = getelementptr inbounds nuw i8, ptr %139, i32 1
  store ptr %140, ptr %5, align 8, !tbaa !10
  store i8 %138, ptr %139, align 1, !tbaa !12
  br label %193

141:                                              ; preds = %88, %83
  br label %142

142:                                              ; preds = %37, %141
  store i64 0, ptr %7, align 8, !tbaa !31
  br label %143

143:                                              ; preds = %162, %142
  %144 = load ptr, ptr %3, align 8, !tbaa !10
  %145 = load ptr, ptr %4, align 8, !tbaa !10
  %146 = icmp ult ptr %144, %145
  br i1 %146, label %147, label %160

147:                                              ; preds = %143
  %148 = load ptr, ptr %3, align 8, !tbaa !10
  %149 = load i8, ptr %148, align 1, !tbaa !12
  %150 = sext i8 %149 to i32
  %151 = icmp sge i32 %150, 48
  br i1 %151, label %152, label %160

152:                                              ; preds = %147
  %153 = load ptr, ptr %3, align 8, !tbaa !10
  %154 = load i8, ptr %153, align 1, !tbaa !12
  %155 = sext i8 %154 to i32
  %156 = icmp sle i32 %155, 55
  br i1 %156, label %157, label %160

157:                                              ; preds = %152
  %158 = load i64, ptr %7, align 8, !tbaa !31
  %159 = icmp ult i64 %158, 3
  br label %160

160:                                              ; preds = %157, %152, %147, %143
  %161 = phi i1 [ false, %152 ], [ false, %147 ], [ false, %143 ], [ %159, %157 ]
  br i1 %161, label %162, label %169

162:                                              ; preds = %160
  %163 = load ptr, ptr %3, align 8, !tbaa !10
  %164 = getelementptr inbounds nuw i8, ptr %163, i32 1
  store ptr %164, ptr %3, align 8, !tbaa !10
  %165 = load i8, ptr %163, align 1, !tbaa !12
  %166 = load i64, ptr %7, align 8, !tbaa !31
  %167 = add i64 %166, 1
  store i64 %167, ptr %7, align 8, !tbaa !31
  %168 = getelementptr inbounds nuw [4 x i8], ptr %8, i64 0, i64 %166
  store i8 %165, ptr %168, align 1, !tbaa !12
  br label %143

169:                                              ; preds = %160
  %170 = load i64, ptr %7, align 8, !tbaa !31
  %171 = icmp ne i64 %170, 0
  br i1 %171, label %172, label %185

172:                                              ; preds = %169
  %173 = load i64, ptr %7, align 8, !tbaa !31
  %174 = getelementptr inbounds nuw [4 x i8], ptr %8, i64 0, i64 %173
  store i8 0, ptr %174, align 1, !tbaa !12
  %175 = getelementptr inbounds [4 x i8], ptr %8, i64 0, i64 0
  %176 = call i64 @strtol(ptr noundef %175, ptr noundef null, i32 noundef 8) #22
  %177 = trunc i64 %176 to i8
  %178 = load ptr, ptr %5, align 8, !tbaa !10
  %179 = getelementptr inbounds nuw i8, ptr %178, i32 1
  store ptr %179, ptr %5, align 8, !tbaa !10
  store i8 %177, ptr %178, align 1, !tbaa !12
  %180 = load i64, ptr %7, align 8, !tbaa !31
  %181 = load i64, ptr %6, align 8, !tbaa !31
  %182 = sub i64 %181, %180
  store i64 %182, ptr %6, align 8, !tbaa !31
  %183 = load ptr, ptr %3, align 8, !tbaa !10
  %184 = getelementptr inbounds i8, ptr %183, i32 -1
  store ptr %184, ptr %3, align 8, !tbaa !10
  br label %192

185:                                              ; preds = %169
  %186 = load ptr, ptr %3, align 8, !tbaa !10
  %187 = load i8, ptr %186, align 1, !tbaa !12
  %188 = load ptr, ptr %5, align 8, !tbaa !10
  %189 = getelementptr inbounds nuw i8, ptr %188, i32 1
  store ptr %189, ptr %5, align 8, !tbaa !10
  store i8 %187, ptr %188, align 1, !tbaa !12
  %190 = load i64, ptr %6, align 8, !tbaa !31
  %191 = add i64 %190, -1
  store i64 %191, ptr %6, align 8, !tbaa !31
  br label %192

192:                                              ; preds = %185, %172
  br label %193

193:                                              ; preds = %192, %135, %78, %73, %68, %63, %58, %53, %48, %43
  br label %199

194:                                              ; preds = %32, %27
  %195 = load ptr, ptr %3, align 8, !tbaa !10
  %196 = load i8, ptr %195, align 1, !tbaa !12
  %197 = load ptr, ptr %5, align 8, !tbaa !10
  %198 = getelementptr inbounds nuw i8, ptr %197, i32 1
  store ptr %198, ptr %5, align 8, !tbaa !10
  store i8 %196, ptr %197, align 1, !tbaa !12
  br label %199

199:                                              ; preds = %194, %193
  br label %200

200:                                              ; preds = %199
  %201 = load ptr, ptr %3, align 8, !tbaa !10
  %202 = getelementptr inbounds nuw i8, ptr %201, i32 1
  store ptr %202, ptr %3, align 8, !tbaa !10
  br label %23

203:                                              ; preds = %23
  %204 = load i64, ptr %6, align 8, !tbaa !31
  %205 = icmp ne i64 %204, 0
  br i1 %205, label %206, label %208

206:                                              ; preds = %203
  %207 = load ptr, ptr %5, align 8, !tbaa !10
  store i8 0, ptr %207, align 1, !tbaa !12
  br label %208

208:                                              ; preds = %206, %203
  %209 = load i64, ptr %6, align 8, !tbaa !31
  %210 = load ptr, ptr %2, align 8, !tbaa !23
  %211 = getelementptr inbounds nuw %struct._zend_string, ptr %210, i32 0, i32 2
  store i64 %209, ptr %211, align 8, !tbaa !25
  call void @llvm.lifetime.end.p0(i64 4, ptr %8) #22
  call void @llvm.lifetime.end.p0(i64 8, ptr %7) #22
  call void @llvm.lifetime.end.p0(i64 8, ptr %6) #22
  call void @llvm.lifetime.end.p0(i64 8, ptr %5) #22
  call void @llvm.lifetime.end.p0(i64 8, ptr %4) #22
  call void @llvm.lifetime.end.p0(i64 8, ptr %3) #22
  ret void
}