; Function Attrs: nofree nounwind uwtable
define dso_local void @php_stripcslashes(ptr noundef captures(address) %0) local_unnamed_addr #17 {
  %2 = alloca [4 x i8], align 1
  %3 = getelementptr inbounds nuw i8, ptr %0, i64 16
  %4 = load i64, ptr %3, align 8, !tbaa !16
  call void @llvm.lifetime.start.p0(i64 4, ptr nonnull %2) #28
  %.ptr = getelementptr inbounds nuw i8, ptr %0, i64 24
  %5 = getelementptr i8, ptr %0, i64 %4
  %.ptr91 = getelementptr i8, ptr %5, i64 24
  %6 = icmp sgt i64 %4, 0
  br i1 %6, label %.lr.ph88, label %._crit_edge

.lr.ph88:                                         ; preds = %1
  %7 = getelementptr inbounds nuw i8, ptr %2, i64 1
  %8 = getelementptr inbounds nuw i8, ptr %2, i64 2
  br label %9

9:                                                ; preds = %.lr.ph88, %78
  %.06287 = phi i64 [ %4, %.lr.ph88 ], [ %.2, %78 ]
  %.06386 = phi ptr [ %.ptr, %.lr.ph88 ], [ %.164, %78 ]
  %.06585 = phi ptr [ %.ptr, %.lr.ph88 ], [ %79, %78 ]
  %10 = load i8, ptr %.06585, align 1, !tbaa !10
  %11 = icmp eq i8 %10, 92
  br i1 %11, label %12, label %77

12:                                               ; preds = %9
  %13 = getelementptr inbounds nuw i8, ptr %.06585, i64 1
  %14 = icmp ult ptr %13, %.ptr91
  br i1 %14, label %15, label %77

15:                                               ; preds = %12
  %16 = load i8, ptr %13, align 1, !tbaa !10
  switch i8 %16, label %.lr.ph.preheader [
    i8 110, label %17
    i8 114, label %19
    i8 97, label %21
    i8 116, label %23
    i8 118, label %25
    i8 98, label %27
    i8 102, label %29
    i8 92, label %31
    i8 120, label %33
  ]

17:                                               ; preds = %15
  store i8 10, ptr %.06386, align 1, !tbaa !10
  %18 = add i64 %.06287, -1
  br label %78

19:                                               ; preds = %15
  store i8 13, ptr %.06386, align 1, !tbaa !10
  %20 = add i64 %.06287, -1
  br label %78

21:                                               ; preds = %15
  store i8 7, ptr %.06386, align 1, !tbaa !10
  %22 = add i64 %.06287, -1
  br label %78

23:                                               ; preds = %15
  store i8 9, ptr %.06386, align 1, !tbaa !10
  %24 = add i64 %.06287, -1
  br label %78

25:                                               ; preds = %15
  store i8 11, ptr %.06386, align 1, !tbaa !10
  %26 = add i64 %.06287, -1
  br label %78

27:                                               ; preds = %15
  store i8 8, ptr %.06386, align 1, !tbaa !10
  %28 = add i64 %.06287, -1
  br label %78

29:                                               ; preds = %15
  store i8 12, ptr %.06386, align 1, !tbaa !10
  %30 = add i64 %.06287, -1
  br label %78

31:                                               ; preds = %15
  store i8 92, ptr %.06386, align 1, !tbaa !10
  %32 = add i64 %.06287, -1
  br label %78

33:                                               ; preds = %15
  %34 = getelementptr inbounds nuw i8, ptr %.06585, i64 2
  %35 = icmp ult ptr %34, %.ptr91
  br i1 %35, label %36, label %.lr.ph.preheader

.lr.ph.preheader:                                 ; preds = %15, %36, %33
  br label %.lr.ph

36:                                               ; preds = %33
  %37 = tail call ptr @__ctype_b_loc() #33
  %38 = load ptr, ptr %37, align 8, !tbaa !112
  %39 = load i8, ptr %34, align 1, !tbaa !10
  %40 = sext i8 %39 to i64
  %41 = getelementptr inbounds i16, ptr %38, i64 %40
  %42 = load i16, ptr %41, align 2, !tbaa !114
  %43 = and i16 %42, 4096
  %.not73 = icmp eq i16 %43, 0
  br i1 %.not73, label %.lr.ph.preheader, label %44

44:                                               ; preds = %36
  store i8 %39, ptr %2, align 1, !tbaa !10
  %45 = getelementptr inbounds nuw i8, ptr %.06585, i64 3
  %46 = icmp ult ptr %45, %.ptr91
  br i1 %46, label %47, label %54

47:                                               ; preds = %44
  %48 = load i8, ptr %45, align 1, !tbaa !10
  %49 = sext i8 %48 to i64
  %50 = getelementptr inbounds i16, ptr %38, i64 %49
  %51 = load i16, ptr %50, align 2, !tbaa !114
  %52 = and i16 %51, 4096
  %.not74 = icmp eq i16 %52, 0
  br i1 %.not74, label %54, label %53

53:                                               ; preds = %47
  store i8 %48, ptr %7, align 1, !tbaa !10
  store i8 0, ptr %8, align 1, !tbaa !10
  br label %55

54:                                               ; preds = %47, %44
  store i8 0, ptr %7, align 1, !tbaa !10
  br label %55

55:                                               ; preds = %54, %53
  %.sink = phi i64 [ -2, %54 ], [ -3, %53 ]
  %.166 = phi ptr [ %34, %54 ], [ %45, %53 ]
  %56 = add i64 %.06287, %.sink
  %57 = call i64 @strtol(ptr noundef nonnull captures(none) %2, ptr noundef null, i32 noundef 16) #28
  %58 = trunc i64 %57 to i8
  store i8 %58, ptr %.06386, align 1, !tbaa !10
  br label %78

.lr.ph:                                           ; preds = %.lr.ph.preheader, %64
  %.077 = phi i64 [ %66, %64 ], [ 0, %.lr.ph.preheader ]
  %.26776 = phi ptr [ %65, %64 ], [ %13, %.lr.ph.preheader ]
  %59 = load i8, ptr %.26776, align 1, !tbaa !10
  %60 = icmp sgt i8 %59, 47
  br i1 %60, label %61, label %.critedge

61:                                               ; preds = %.lr.ph
  %62 = icmp samesign ult i8 %59, 56
  %63 = icmp samesign ult i64 %.077, 3
  %or.cond = select i1 %62, i1 %63, i1 false
  br i1 %or.cond, label %64, label %.critedge

64:                                               ; preds = %61
  %65 = getelementptr inbounds nuw i8, ptr %.26776, i64 1
  %66 = add nuw nsw i64 %.077, 1
  %67 = getelementptr inbounds nuw [4 x i8], ptr %2, i64 0, i64 %.077
  store i8 %59, ptr %67, align 1, !tbaa !10
  %68 = icmp ult ptr %65, %.ptr91
  br i1 %68, label %.lr.ph, label %.critedge.thread

.critedge:                                        ; preds = %.lr.ph, %61
  %.not75 = icmp eq i64 %.077, 0
  br i1 %.not75, label %74, label %.critedge.thread

.critedge.thread:                                 ; preds = %64, %.critedge
  %.0.lcssa.ph96 = phi i64 [ %.077, %.critedge ], [ %66, %64 ]
  %.267.lcssa.ph95 = phi ptr [ %.26776, %.critedge ], [ %65, %64 ]
  %69 = getelementptr inbounds nuw [4 x i8], ptr %2, i64 0, i64 %.0.lcssa.ph96
  store i8 0, ptr %69, align 1, !tbaa !10
  %70 = call i64 @strtol(ptr noundef nonnull captures(none) %2, ptr noundef null, i32 noundef 8) #28
  %71 = trunc i64 %70 to i8
  store i8 %71, ptr %.06386, align 1, !tbaa !10
  %72 = sub i64 %.06287, %.0.lcssa.ph96
  %73 = getelementptr inbounds i8, ptr %.267.lcssa.ph95, i64 -1
  br label %78

74:                                               ; preds = %.critedge
  %75 = load i8, ptr %.26776, align 1, !tbaa !10
  store i8 %75, ptr %.06386, align 1, !tbaa !10
  %76 = add i64 %.06287, -1
  br label %78

77:                                               ; preds = %12, %9
  store i8 %10, ptr %.06386, align 1, !tbaa !10
  br label %78

78:                                               ; preds = %77, %.critedge.thread, %74, %55, %31, %29, %27, %25, %23, %21, %19, %17
  %.3 = phi ptr [ %73, %.critedge.thread ], [ %.26776, %74 ], [ %.166, %55 ], [ %13, %31 ], [ %13, %29 ], [ %13, %27 ], [ %13, %25 ], [ %13, %23 ], [ %13, %21 ], [ %13, %19 ], [ %13, %17 ], [ %.06585, %77 ]
  %.2 = phi i64 [ %72, %.critedge.thread ], [ %76, %74 ], [ %56, %55 ], [ %32, %31 ], [ %30, %29 ], [ %28, %27 ], [ %26, %25 ], [ %24, %23 ], [ %22, %21 ], [ %20, %19 ], [ %18, %17 ], [ %.06287, %77 ]
  %.164 = getelementptr inbounds nuw i8, ptr %.06386, i64 1
  %79 = getelementptr inbounds nuw i8, ptr %.3, i64 1
  %80 = icmp ult ptr %79, %.ptr91
  br i1 %80, label %9, label %._crit_edge

._crit_edge:                                      ; preds = %78, %1
  %.063.lcssa = phi ptr [ %.ptr, %1 ], [ %.164, %78 ]
  %.062.lcssa = phi i64 [ %4, %1 ], [ %.2, %78 ]
  %.not = icmp eq i64 %.062.lcssa, 0
  br i1 %.not, label %82, label %81

81:                                               ; preds = %._crit_edge
  store i8 0, ptr %.063.lcssa, align 1, !tbaa !10
  br label %82

82:                                               ; preds = %81, %._crit_edge
  store i64 %.062.lcssa, ptr %3, align 8, !tbaa !16
  call void @llvm.lifetime.end.p0(i64 4, ptr nonnull %2) #28
  ret void
}